Certificate:
    Data:
        Version: 3 (0x2)
        Serial Number: 1 (0x1)
    Signature Algorithm: sha256WithRSAEncryption
        Issuer: C=CN, ST=beijing, L=beijing, O=xiaomi ltd, OU=internet, CN=guoyu/emailAddress=guo.simon.giv@gmail.com
        Validity
            Not Before: Nov 29 08:36:39 2016 GMT
            Not After : Nov 28 08:36:39 2020 GMT
        Subject: C=CN, ST=beijing, L=beijing, O=xiaomi ltd, OU=internet, CN=guoyu/emailAddress=guo.simon.giv@gmail.com
        Subject Public Key Info:
            Public Key Algorithm: rsaEncryption
                Public-Key: (1024 bit)
                Modulus:
                    00:cf:ff:3a:ed:b9:34:2c:b8:4f:ed:4c:bb:62:e5:
                    f1:2f:7d:06:75:1e:fa:8d:51:c9:da:8d:2c:ae:8d:
                    f5:aa:53:53:cd:b7:8c:50:61:f9:23:81:9d:18:81:
                    3e:f6:d5:da:71:45:96:bb:ac:ee:5c:c6:5d:de:c8:
                    e9:26:fd:cc:b0:6b:fa:61:e8:58:05:28:6f:42:e1:
                    78:84:07:95:93:2c:80:c0:49:9b:11:5a:de:ce:af:
                    fb:ee:49:30:7f:5c:45:09:65:fc:96:42:f9:bd:c1:
                    73:bf:85:05:d9:45:fd:96:e1:f5:e5:5e:de:3c:ab:
                    38:87:2b:f5:f7:d8:9e:ed:4f
                Exponent: 65537 (0x10001)
        X509v3 extensions:
            X509v3 Basic Constraints: 
                CA:FALSE
            Netscape Comment: 
                OpenSSL Generated Certificate
            X509v3 Subject Key Identifier: 
                C4:C7:A1:BF:6B:C3:40:82:C7:0E:A2:7A:16:EE:B8:BF:CC:AA:F4:53
            X509v3 Authority Key Identifier: 
                keyid:26:C5:EB:B4:6A:E6:5A:68:62:4D:55:1E:82:93:69:1B:43:A8:B3:82

    Signature Algorithm: sha256WithRSAEncryption
         dc:25:3d:d5:dd:65:b1:da:f1:b1:18:4b:1e:a1:f3:2b:6e:5c:
         53:62:7e:f6:b0:68:37:14:cf:28:94:3c:42:f0:af:1c:f4:58:
         20:9c:c8:27:89:39:38:1a:2f:c3:cc:a2:97:e0:7f:b8:48:9d:
         a8:bd:55:e5:d6:c2:78:f0:5e:3f:7b:8f:17:2a:6e:67:d1:85:
         26:f3:03:56:b6:68:f6:b0:5b:23:4a:d1:50:76:f9:46:f8:b1:
         2c:33:99:b5:83:d6:00:8a:df:e1:d8:0a:42:9f:28:70:13:f8:
         d5:c6:cd:9e:2e:68:18:95:17:8c:27:0c:04:56:3b:fa:7c:0f:
         27:0e:d6:74:b8:72:53:55:ea:15:9c:b0:82:8e:53:49:e0:5f:
         1b:33:9b:02:ca:12:97:fb:4e:3a:21:cf:62:47:ae:e5:8e:0f:
         54:91:1e:9b:61:b0:b1:f4:0d:4a:3c:d5:df:0c:7a:63:b6:67:
         69:56:70:0c:d7:1c:d6:40:47:9b:9b:9a:ed:5e:89:db:a5:59:
         20:3c:6d:ef:6d:6b:23:ea:43:bc:1d:8d:16:e1:82:cd:22:ca:
         58:75:cf:3e:df:dc:51:fe:5b:3f:c4:50:63:fc:bc:ec:1c:34:
         cc:48:db:bd:9d:6e:99:95:cd:0b:54:d9:87:5f:94:95:75:aa:
         ea:d4:8b:cb
-----BEGIN CERTIFICATE-----
MIIDljCCAn6gAwIBAgIBATANBgkqhkiG9w0BAQsFADCBkTELMAkGA1UEBhMCQ04x
EDAOBgNVBAgMB2JlaWppbmcxEDAOBgNVBAcMB2JlaWppbmcxEzARBgNVBAoMCnhp
YW9taSBsdGQxETAPBgNVBAsMCGludGVybmV0MQ4wDAYDVQQDDAVndW95dTEmMCQG
CSqGSIb3DQEJARYXZ3VvLnNpbW9uLmdpdkBnbWFpbC5jb20wHhcNMTYxMTI5MDgz
NjM5WhcNMjAxMTI4MDgzNjM5WjCBkTELMAkGA1UEBhMCQ04xEDAOBgNVBAgMB2Jl
aWppbmcxEDAOBgNVBAcMB2JlaWppbmcxEzARBgNVBAoMCnhpYW9taSBsdGQxETAP
BgNVBAsMCGludGVybmV0MQ4wDAYDVQQDDAVndW95dTEmMCQGCSqGSIb3DQEJARYX
Z3VvLnNpbW9uLmdpdkBnbWFpbC5jb20wgZ8wDQYJKoZIhvcNAQEBBQADgY0AMIGJ
AoGBAM//Ou25NCy4T+1Mu2Ll8S99BnUe+o1RydqNLK6N9apTU823jFBh+SOBnRiB
PvbV2nFFlrus7lzGXd7I6Sb9zLBr+mHoWAUob0LheIQHlZMsgMBJmxFa3s6v++5J
MH9cRQll/JZC+b3Bc7+FBdlF/Zbh9eVe3jyrOIcr9ffYnu1PAgMBAAGjezB5MAkG
A1UdEwQCMAAwLAYJYIZIAYb4QgENBB8WHU9wZW5TU0wgR2VuZXJhdGVkIENlcnRp
ZmljYXRlMB0GA1UdDgQWBBTEx6G/a8NAgscOonoW7ri/zKr0UzAfBgNVHSMEGDAW
gBQmxeu0auZaaGJNVR6Ck2kbQ6izgjANBgkqhkiG9w0BAQsFAAOCAQEA3CU91d1l
sdrxsRhLHqHzK25cU2J+9rBoNxTPKJQ8QvCvHPRYIJzIJ4k5OBovw8yil+B/uEid
qL1V5dbCePBeP3uPFypuZ9GFJvMDVrZo9rBbI0rRUHb5RvixLDOZtYPWAIrf4dgK
Qp8ocBP41cbNni5oGJUXjCcMBFY7+nwPJw7WdLhyU1XqFZywgo5TSeBfGzObAsoS
l/tOOiHPYkeu5Y4PVJEem2GwsfQNSjzV3wx6Y7ZnaVZwDNcc1kBHm5ua7V6J26VZ
IDxt721rI+pDvB2NFuGCzSLKWHXPPt/cUf5bP8RQY/y87Bw0zEjbvZ1umZXNC1TZ
h1+UlXWq6tSLyw==
-----END CERTIFICATE-----
